target datalayout = "e-m:e-p270:32:32-p271:32:32-p272:64:64-i64:64-i128:128-f80:128-n8:16:32:64-S128"
target triple = "x86_64-pc-linux-gnu"

; Function Attrs: inlinehint nounwind uwtable
define internal void @Vec_IntSelectSortCost2Reverse(ptr noundef %0, i32 noundef %1, ptr noundef %2) #3 {
  %4 = alloca ptr, align 8
  %5 = alloca i32, align 4
  %6 = alloca ptr, align 8
  %7 = alloca i32, align 4
  %8 = alloca i32, align 4
  %9 = alloca i32, align 4
  %10 = alloca i32, align 4
  %11 = alloca i32, align 4
  store ptr %0, ptr %4, align 8, !tbaa !99
  store i32 %1, ptr %5, align 4, !tbaa !29
  store ptr %2, ptr %6, align 8, !tbaa !99
  call void @llvm.lifetime.start.p0(i64 4, ptr %7) #13
  call void @llvm.lifetime.start.p0(i64 4, ptr %8) #13
  call void @llvm.lifetime.start.p0(i64 4, ptr %9) #13
  store i32 0, ptr %7, align 4, !tbaa !29
  br label %12

12:                                               ; preds = %82, %3
  %13 = load i32, ptr %7, align 4, !tbaa !29
  %14 = load i32, ptr %5, align 4, !tbaa !29
  %15 = sub nsw i32 %14, 1
  %16 = icmp slt i32 %13, %15
  br i1 %16, label %17, label %85

17:                                               ; preds = %12
  %18 = load i32, ptr %7, align 4, !tbaa !29
  store i32 %18, ptr %9, align 4, !tbaa !29
  %19 = load i32, ptr %7, align 4, !tbaa !29
  %20 = add nsw i32 %19, 1
  store i32 %20, ptr %8, align 4, !tbaa !29
  br label %21

21:                                               ; preds = %40, %17
  %22 = load i32, ptr %8, align 4, !tbaa !29
  %23 = load i32, ptr %5, align 4, !tbaa !29
  %24 = icmp slt i32 %22, %23
  br i1 %24, label %25, label %43

25:                                               ; preds = %21
  %26 = load ptr, ptr %6, align 8, !tbaa !99
  %27 = load i32, ptr %8, align 4, !tbaa !29
  %28 = sext i32 %27 to i64
  %29 = getelementptr inbounds i32, ptr %26, i64 %28
  %30 = load i32, ptr %29, align 4, !tbaa !29
  %31 = load ptr, ptr %6, align 8, !tbaa !99
  %32 = load i32, ptr %9, align 4, !tbaa !29
  %33 = sext i32 %32 to i64
  %34 = getelementptr inbounds i32, ptr %31, i64 %33
  %35 = load i32, ptr %34, align 4, !tbaa !29
  %36 = icmp sgt i32 %30, %35
  br i1 %36, label %37, label %39

37:                                               ; preds = %25
  %38 = load i32, ptr %8, align 4, !tbaa !29
  store i32 %38, ptr %9, align 4, !tbaa !29
  br label %39

39:                                               ; preds = %37, %25
  br label %40

40:                                               ; preds = %39
  %41 = load i32, ptr %8, align 4, !tbaa !29
  %42 = add nsw i32 %41, 1
  store i32 %42, ptr %8, align 4, !tbaa !29
  br label %21, !llvm.loop !339

43:                                               ; preds = %21
  call void @llvm.lifetime.start.p0(i64 4, ptr %10) #13
  %44 = load ptr, ptr %4, align 8, !tbaa !99
  %45 = load i32, ptr %7, align 4, !tbaa !29
  %46 = sext i32 %45 to i64
  %47 = getelementptr inbounds i32, ptr %44, i64 %46
  %48 = load i32, ptr %47, align 4, !tbaa !29
  store i32 %48, ptr %10, align 4, !tbaa !29
  %49 = load ptr, ptr %4, align 8, !tbaa !99
  %50 = load i32, ptr %9, align 4, !tbaa !29
  %51 = sext i32 %50 to i64
  %52 = getelementptr inbounds i32, ptr %49, i64 %51
  %53 = load i32, ptr %52, align 4, !tbaa !29
  %54 = load ptr, ptr %4, align 8, !tbaa !99
  %55 = load i32, ptr %7, align 4, !tbaa !29
  %56 = sext i32 %55 to i64
  %57 = getelementptr inbounds i32, ptr %54, i64 %56
  store i32 %53, ptr %57, align 4, !tbaa !29
  %58 = load i32, ptr %10, align 4, !tbaa !29
  %59 = load ptr, ptr %4, align 8, !tbaa !99
  %60 = load i32, ptr %9, align 4, !tbaa !29
  %61 = sext i32 %60 to i64
  %62 = getelementptr inbounds i32, ptr %59, i64 %61
  store i32 %58, ptr %62, align 4, !tbaa !29
  call void @llvm.lifetime.end.p0(i64 4, ptr %10) #13
  call void @llvm.lifetime.start.p0(i64 4, ptr %11) #13
  %63 = load ptr, ptr %6, align 8, !tbaa !99
  %64 = load i32, ptr %7, align 4, !tbaa !29
  %65 = sext i32 %64 to i64
  %66 = getelementptr inbounds i32, ptr %63, i64 %65
  %67 = load i32, ptr %66, align 4, !tbaa !29
  store i32 %67, ptr %11, align 4, !tbaa !29
  %68 = load ptr, ptr %6, align 8, !tbaa !99
  %69 = load i32, ptr %9, align 4, !tbaa !29
  %70 = sext i32 %69 to i64
  %71 = getelementptr inbounds i32, ptr %68, i64 %70
  %72 = load i32, ptr %71, align 4, !tbaa !29
  %73 = load ptr, ptr %6, align 8, !tbaa !99
  %74 = load i32, ptr %7, align 4, !tbaa !29
  %75 = sext i32 %74 to i64
  %76 = getelementptr inbounds i32, ptr %73, i64 %75
  store i32 %72, ptr %76, align 4, !tbaa !29
  %77 = load i32, ptr %11, align 4, !tbaa !29
  %78 = load ptr, ptr %6, align 8, !tbaa !99
  %79 = load i32, ptr %9, align 4, !tbaa !29
  %80 = sext i32 %79 to i64
  %81 = getelementptr inbounds i32, ptr %78, i64 %80
  store i32 %77, ptr %81, align 4, !tbaa !29
  call void @llvm.lifetime.end.p0(i64 4, ptr %11) #13
  br label %82

82:                                               ; preds = %43
  %83 = load i32, ptr %7, align 4, !tbaa !29
  %84 = add nsw i32 %83, 1
  store i32 %84, ptr %7, align 4, !tbaa !29
  br label %12, !llvm.loop !340

85:                                               ; preds = %12
  call void @llvm.lifetime.end.p0(i64 4, ptr %9) #13
  call void @llvm.lifetime.end.p0(i64 4, ptr %8) #13
  call void @llvm.lifetime.end.p0(i64 4, ptr %7) #13
  ret void
}