; Function Attrs: inlinehint nofree norecurse nosync nounwind memory(argmem: readwrite) uwtable
define internal fastcc void @Vec_IntSelectSortCost2Reverse(ptr noundef nonnull captures(none) %0, i32 noundef range(i32 8, -2147483648) %1, ptr noundef nonnull captures(none) %2) unnamed_addr #22 {
.lr.ph36.preheader:
  %3 = add nsw i32 %1, -1
  %wide.trip.count44 = zext nneg i32 %3 to i64
  %wide.trip.count = zext nneg i32 %1 to i64
  br label %.lr.ph.preheader

.lr.ph.preheader:                                 ; preds = %._crit_edge, %.lr.ph36.preheader
  %indvars.iv41 = phi i64 [ 0, %.lr.ph36.preheader ], [ %indvars.iv.next42, %._crit_edge ]
  %indvars.iv = phi i64 [ 1, %.lr.ph36.preheader ], [ %indvars.iv.next, %._crit_edge ]
  %indvars.iv.next42 = add nuw nsw i64 %indvars.iv41, 1
  %4 = trunc nuw nsw i64 %indvars.iv41 to i32
  br label %.lr.ph

.lr.ph:                                           ; preds = %.lr.ph.preheader, %.lr.ph
  %indvars.iv38 = phi i64 [ %indvars.iv, %.lr.ph.preheader ], [ %indvars.iv.next39, %.lr.ph ]
  %.03132 = phi i32 [ %4, %.lr.ph.preheader ], [ %spec.select, %.lr.ph ]
  %5 = getelementptr inbounds nuw i32, ptr %2, i64 %indvars.iv38
  %6 = load i32, ptr %5, align 4, !tbaa !50
  %7 = sext i32 %.03132 to i64
  %8 = getelementptr inbounds i32, ptr %2, i64 %7
  %9 = load i32, ptr %8, align 4, !tbaa !50
  %10 = icmp sgt i32 %6, %9
  %11 = trunc nuw nsw i64 %indvars.iv38 to i32
  %spec.select = select i1 %10, i32 %11, i32 %.03132
  %indvars.iv.next39 = add nuw nsw i64 %indvars.iv38, 1
  %exitcond.not = icmp eq i64 %indvars.iv.next39, %wide.trip.count
  br i1 %exitcond.not, label %._crit_edge, label %.lr.ph, !llvm.loop !306

._crit_edge:                                      ; preds = %.lr.ph
  %12 = getelementptr inbounds nuw i32, ptr %0, i64 %indvars.iv41
  %13 = load i32, ptr %12, align 4, !tbaa !50
  %14 = sext i32 %spec.select to i64
  %15 = getelementptr inbounds i32, ptr %0, i64 %14
  %16 = load i32, ptr %15, align 4, !tbaa !50
  store i32 %16, ptr %12, align 4, !tbaa !50
  store i32 %13, ptr %15, align 4, !tbaa !50
  %17 = getelementptr inbounds nuw i32, ptr %2, i64 %indvars.iv41
  %18 = load i32, ptr %17, align 4, !tbaa !50
  %19 = getelementptr inbounds i32, ptr %2, i64 %14
  %20 = load i32, ptr %19, align 4, !tbaa !50
  store i32 %20, ptr %17, align 4, !tbaa !50
  store i32 %18, ptr %19, align 4, !tbaa !50
  %indvars.iv.next = add nuw nsw i64 %indvars.iv, 1
  %exitcond45.not = icmp eq i64 %indvars.iv.next42, %wide.trip.count44
  br i1 %exitcond45.not, label %._crit_edge37, label %.lr.ph.preheader, !llvm.loop !307

._crit_edge37:                                    ; preds = %._crit_edge
  ret void
}